target datalayout = "e-m:e-p270:32:32-p271:32:32-p272:64:64-i64:64-i128:128-f80:128-n8:16:32:64-S128"
target triple = "x86_64-pc-linux-gnu"

%struct.Mv = type { i32, i32 }
%struct.VVCLocalContext = type { i8, i8, i8, i8, i32, i32, [4 x i8], [3276800 x i8], [16384 x i16], [16384 x i16], [16384 x i16], [32768 x i8], [332800 x i8], [368640 x i8], [368640 x i8], [17424 x i32], %struct.anon, %struct.anon.0, ptr, [2 x [1024 x %struct.ReconstructedArea]], [2 x i32], %struct.NeighbourAvailable, i32, ptr, ptr, ptr, ptr }
%struct.anon = type { i32, i8, i32, i32, i32, [3 x i32], i32, i32, i32, i32, i32, i32 }
%struct.anon.0 = type { i32, i32, i32 }
%struct.ReconstructedArea = type { i32, i32, i32, i32 }
%struct.NeighbourAvailable = type { i32, i32, i32, i32, i32 }
%struct.MvField = type { [2 x %struct.Mv], [2 x i8], i8, i8, i8, i8 }
%struct.CodingUnit = type { i32, i32, i32, i32, i32, i32, i32, i8, i8, i8, i8, i32, i32, i8, i8, i8, i8, i8, i32, i32, i32, i32, i32, i32, [3 x i32], [3 x i32], %struct.anon.3, [4 x i8], [3 x %struct.Palette], [4 x i8], %struct.PredictionUnit, ptr }
%struct.anon.3 = type { ptr, ptr }
%struct.Palette = type { i8, [63 x i16] }
%struct.PredictionUnit = type { i8, i8, i8, i8, i8, i8, [2 x %struct.MvField], i32, %struct.MotionInfo, i8, i8, [2 x [16 x i16]], [2 x [16 x i16]], [2 x i32], [4 x i8] }
%struct.MotionInfo = type { i32, [2 x i8], i8, i8, i32, [2 x [3 x %struct.Mv]], i32, i32 }

; Function Attrs: nounwind uwtable
define void @ff_vvc_mvp(ptr noundef %0, ptr noundef %1, i32 noundef %2, ptr noundef %3) #0 {
  %5 = alloca ptr, align 8
  %6 = alloca ptr, align 8
  %7 = alloca i32, align 4
  %8 = alloca ptr, align 8
  %9 = alloca ptr, align 8
  store ptr %0, ptr %5, align 8, !tbaa !14
  store ptr %1, ptr %6, align 8, !tbaa !165
  store i32 %2, ptr %7, align 4, !tbaa !9
  store ptr %3, ptr %8, align 8, !tbaa !117
  call void @llvm.lifetime.start.p0(i64 8, ptr %9) #9
  %10 = load ptr, ptr %5, align 8, !tbaa !14
  %11 = getelementptr inbounds nuw %struct.VVCLocalContext, ptr %10, i32 0, i32 18
  %12 = load ptr, ptr %11, align 8, !tbaa !90
  store ptr %12, ptr %9, align 8, !tbaa !91
  %13 = load ptr, ptr %8, align 8, !tbaa !117
  %14 = getelementptr inbounds nuw %struct.MotionInfo, ptr %13, i32 0, i32 6
  store i32 1, ptr %14, align 4, !tbaa !119
  %15 = load ptr, ptr %8, align 8, !tbaa !117
  %16 = getelementptr inbounds nuw %struct.MotionInfo, ptr %15, i32 0, i32 7
  store i32 1, ptr %16, align 4, !tbaa !120
  %17 = load ptr, ptr %5, align 8, !tbaa !14
  %18 = load ptr, ptr %9, align 8, !tbaa !91
  %19 = getelementptr inbounds nuw %struct.CodingUnit, ptr %18, i32 0, i32 1
  %20 = load i32, ptr %19, align 4, !tbaa !108
  %21 = load ptr, ptr %9, align 8, !tbaa !91
  %22 = getelementptr inbounds nuw %struct.CodingUnit, ptr %21, i32 0, i32 2
  %23 = load i32, ptr %22, align 8, !tbaa !109
  %24 = load ptr, ptr %9, align 8, !tbaa !91
  %25 = getelementptr inbounds nuw %struct.CodingUnit, ptr %24, i32 0, i32 3
  %26 = load i32, ptr %25, align 4, !tbaa !107
  %27 = load ptr, ptr %9, align 8, !tbaa !91
  %28 = getelementptr inbounds nuw %struct.CodingUnit, ptr %27, i32 0, i32 4
  %29 = load i32, ptr %28, align 8, !tbaa !101
  call void @ff_vvc_set_neighbour_available(ptr noundef %17, i32 noundef %20, i32 noundef %23, i32 noundef %26, i32 noundef %29)
  %30 = load ptr, ptr %8, align 8, !tbaa !117
  %31 = getelementptr inbounds nuw %struct.MotionInfo, ptr %30, i32 0, i32 4
  %32 = load i32, ptr %31, align 4, !tbaa !121
  %33 = icmp ne i32 %32, 2
  br i1 %33, label %34, label %47

34:                                               ; preds = %4
  %35 = load ptr, ptr %5, align 8, !tbaa !14
  %36 = load ptr, ptr %6, align 8, !tbaa !165
  %37 = getelementptr inbounds i32, ptr %36, i64 0
  %38 = load i32, ptr %37, align 4, !tbaa !9
  %39 = load ptr, ptr %8, align 8, !tbaa !117
  %40 = getelementptr inbounds nuw %struct.MotionInfo, ptr %39, i32 0, i32 1
  %41 = getelementptr inbounds [2 x i8], ptr %40, i64 0, i64 0
  %42 = load i32, ptr %7, align 4, !tbaa !9
  %43 = load ptr, ptr %8, align 8, !tbaa !117
  %44 = getelementptr inbounds nuw %struct.MotionInfo, ptr %43, i32 0, i32 5
  %45 = getelementptr inbounds [2 x [3 x %struct.Mv]], ptr %44, i64 0, i64 0
  %46 = getelementptr inbounds [3 x %struct.Mv], ptr %45, i64 0, i64 0
  call void @mvp(ptr noundef %35, i32 noundef %38, i32 noundef 0, ptr noundef %41, i32 noundef %42, ptr noundef %46)
  br label %47

47:                                               ; preds = %34, %4
  %48 = load ptr, ptr %8, align 8, !tbaa !117
  %49 = getelementptr inbounds nuw %struct.MotionInfo, ptr %48, i32 0, i32 4
  %50 = load i32, ptr %49, align 4, !tbaa !121
  %51 = icmp ne i32 %50, 1
  br i1 %51, label %52, label %65

52:                                               ; preds = %47
  %53 = load ptr, ptr %5, align 8, !tbaa !14
  %54 = load ptr, ptr %6, align 8, !tbaa !165
  %55 = getelementptr inbounds i32, ptr %54, i64 1
  %56 = load i32, ptr %55, align 4, !tbaa !9
  %57 = load ptr, ptr %8, align 8, !tbaa !117
  %58 = getelementptr inbounds nuw %struct.MotionInfo, ptr %57, i32 0, i32 1
  %59 = getelementptr inbounds [2 x i8], ptr %58, i64 0, i64 0
  %60 = load i32, ptr %7, align 4, !tbaa !9
  %61 = load ptr, ptr %8, align 8, !tbaa !117
  %62 = getelementptr inbounds nuw %struct.MotionInfo, ptr %61, i32 0, i32 5
  %63 = getelementptr inbounds [2 x [3 x %struct.Mv]], ptr %62, i64 0, i64 1
  %64 = getelementptr inbounds [3 x %struct.Mv], ptr %63, i64 0, i64 0
  call void @mvp(ptr noundef %53, i32 noundef %56, i32 noundef 1, ptr noundef %59, i32 noundef %60, ptr noundef %64)
  br label %65

65:                                               ; preds = %52, %47
  call void @llvm.lifetime.end.p0(i64 8, ptr %9) #9
  ret void
}