; Function Attrs: nounwind uwtable
define void @ff_vvc_mvp(ptr noundef %0, ptr noundef readonly captures(none) %1, i32 noundef %2, ptr noundef captures(none) initializes((60, 68)) %3) local_unnamed_addr #7 {
  %5 = getelementptr inbounds nuw i8, ptr %0, i64 4547736
  %6 = load ptr, ptr %5, align 8, !tbaa !80
  %7 = getelementptr inbounds nuw i8, ptr %3, i64 60
  store i32 1, ptr %7, align 4, !tbaa !97
  %8 = getelementptr inbounds nuw i8, ptr %3, i64 64
  store i32 1, ptr %8, align 4, !tbaa !98
  %9 = getelementptr inbounds nuw i8, ptr %6, i64 4
  %10 = load i32, ptr %9, align 4, !tbaa !90
  %11 = getelementptr inbounds nuw i8, ptr %6, i64 8
  %12 = load i32, ptr %11, align 8, !tbaa !91
  %13 = getelementptr inbounds nuw i8, ptr %6, i64 12
  %14 = load i32, ptr %13, align 4, !tbaa !89
  %15 = getelementptr inbounds nuw i8, ptr %6, i64 16
  %16 = load i32, ptr %15, align 8, !tbaa !83
  tail call void @ff_vvc_set_neighbour_available(ptr noundef %0, i32 noundef %10, i32 noundef %12, i32 noundef %14, i32 noundef %16) #14
  %17 = getelementptr inbounds nuw i8, ptr %3, i64 8
  %18 = load i32, ptr %17, align 4, !tbaa !99
  %.not = icmp eq i32 %18, 2
  br i1 %.not, label %.thread, label %19

19:                                               ; preds = %4
  %20 = load i32, ptr %1, align 4, !tbaa !131
  %21 = getelementptr inbounds nuw i8, ptr %3, i64 4
  %22 = getelementptr inbounds nuw i8, ptr %3, i64 12
  tail call fastcc void @mvp(ptr noundef nonnull %0, i32 noundef %20, i32 noundef 0, ptr noundef nonnull %21, i32 noundef %2, ptr noundef nonnull %22)
  %.pr = load i32, ptr %17, align 4, !tbaa !99
  %.not19 = icmp eq i32 %.pr, 1
  br i1 %.not19, label %27, label %.thread

.thread:                                          ; preds = %4, %19
  %23 = getelementptr inbounds nuw i8, ptr %1, i64 4
  %24 = load i32, ptr %23, align 4, !tbaa !131
  %25 = getelementptr inbounds nuw i8, ptr %3, i64 4
  %26 = getelementptr inbounds nuw i8, ptr %3, i64 36
  tail call fastcc void @mvp(ptr noundef nonnull %0, i32 noundef %24, i32 noundef 1, ptr noundef nonnull %25, i32 noundef %2, ptr noundef nonnull %26)
  br label %27

27:                                               ; preds = %.thread, %19
  ret void
}